
vuln:     file format elf64-x86-64


Disassembly of section .init:

0000000000401000 <_init>:
  401000:	f3 0f 1e fa          	endbr64 
  401004:	48 83 ec 08          	sub    $0x8,%rsp
  401008:	48 8b 05 e9 2f 00 00 	mov    0x2fe9(%rip),%rax        # 403ff8 <__gmon_start__>
  40100f:	48 85 c0             	test   %rax,%rax
  401012:	74 02                	je     401016 <_init+0x16>
  401014:	ff d0                	callq  *%rax
  401016:	48 83 c4 08          	add    $0x8,%rsp
  40101a:	c3                   	retq   

Disassembly of section .plt:

0000000000401020 <.plt>:
  401020:	ff 35 e2 2f 00 00    	pushq  0x2fe2(%rip)        # 404008 <_GLOBAL_OFFSET_TABLE_+0x8>
  401026:	f2 ff 25 e3 2f 00 00 	bnd jmpq *0x2fe3(%rip)        # 404010 <_GLOBAL_OFFSET_TABLE_+0x10>
  40102d:	0f 1f 00             	nopl   (%rax)
  401030:	f3 0f 1e fa          	endbr64 
  401034:	68 00 00 00 00       	pushq  $0x0
  401039:	f2 e9 e1 ff ff ff    	bnd jmpq 401020 <.plt>
  40103f:	90                   	nop
  401040:	f3 0f 1e fa          	endbr64 
  401044:	68 01 00 00 00       	pushq  $0x1
  401049:	f2 e9 d1 ff ff ff    	bnd jmpq 401020 <.plt>
  40104f:	90                   	nop

Disassembly of section .plt.sec:

0000000000401050 <puts@plt>:
  401050:	f3 0f 1e fa          	endbr64 
  401054:	f2 ff 25 bd 2f 00 00 	bnd jmpq *0x2fbd(%rip)        # 404018 <puts@GLIBC_2.2.5>
  40105b:	0f 1f 44 00 00       	nopl   0x0(%rax,%rax,1)

0000000000401060 <__isoc99_scanf@plt>:
  401060:	f3 0f 1e fa          	endbr64 
  401064:	f2 ff 25 b5 2f 00 00 	bnd jmpq *0x2fb5(%rip)        # 404020 <__isoc99_scanf@GLIBC_2.7>
  40106b:	0f 1f 44 00 00       	nopl   0x0(%rax,%rax,1)

Disassembly of section .text:

0000000000401070 <_start>:
  401070:	f3 0f 1e fa          	endbr64 
  401074:	31 ed                	xor    %ebp,%ebp
  401076:	49 89 d1             	mov    %rdx,%r9
  401079:	5e                   	pop    %rsi
  40107a:	48 89 e2             	mov    %rsp,%rdx
  40107d:	48 83 e4 f0          	and    $0xfffffffffffffff0,%rsp
  401081:	50                   	push   %rax
  401082:	54                   	push   %rsp
  401083:	49 c7 c0 10 12 40 00 	mov    $0x401210,%r8
  40108a:	48 c7 c1 a0 11 40 00 	mov    $0x4011a0,%rcx
  401091:	48 c7 c7 6d 11 40 00 	mov    $0x40116d,%rdi
  401098:	ff 15 52 2f 00 00    	callq  *0x2f52(%rip)        # 403ff0 <__libc_start_main@GLIBC_2.2.5>
  40109e:	f4                   	hlt    
  40109f:	90                   	nop

00000000004010a0 <_dl_relocate_static_pie>:
  4010a0:	f3 0f 1e fa          	endbr64 
  4010a4:	c3                   	retq   
  4010a5:	66 2e 0f 1f 84 00 00 	nopw   %cs:0x0(%rax,%rax,1)
  4010ac:	00 00 00 
  4010af:	90                   	nop

00000000004010b0 <deregister_tm_clones>:
  4010b0:	b8 38 40 40 00       	mov    $0x404038,%eax
  4010b5:	48 3d 38 40 40 00    	cmp    $0x404038,%rax
  4010bb:	74 13                	je     4010d0 <deregister_tm_clones+0x20>
  4010bd:	b8 00 00 00 00       	mov    $0x0,%eax
  4010c2:	48 85 c0             	test   %rax,%rax
  4010c5:	74 09                	je     4010d0 <deregister_tm_clones+0x20>
  4010c7:	bf 38 40 40 00       	mov    $0x404038,%edi
  4010cc:	ff e0                	jmpq   *%rax
  4010ce:	66 90                	xchg   %ax,%ax
  4010d0:	c3                   	retq   
  4010d1:	66 66 2e 0f 1f 84 00 	data16 nopw %cs:0x0(%rax,%rax,1)
  4010d8:	00 00 00 00 
  4010dc:	0f 1f 40 00          	nopl   0x0(%rax)

00000000004010e0 <register_tm_clones>:
  4010e0:	be 38 40 40 00       	mov    $0x404038,%esi
  4010e5:	48 81 ee 38 40 40 00 	sub    $0x404038,%rsi
  4010ec:	48 89 f0             	mov    %rsi,%rax
  4010ef:	48 c1 ee 3f          	shr    $0x3f,%rsi
  4010f3:	48 c1 f8 03          	sar    $0x3,%rax
  4010f7:	48 01 c6             	add    %rax,%rsi
  4010fa:	48 d1 fe             	sar    %rsi
  4010fd:	74 11                	je     401110 <register_tm_clones+0x30>
  4010ff:	b8 00 00 00 00       	mov    $0x0,%eax
  401104:	48 85 c0             	test   %rax,%rax
  401107:	74 07                	je     401110 <register_tm_clones+0x30>
  401109:	bf 38 40 40 00       	mov    $0x404038,%edi
  40110e:	ff e0                	jmpq   *%rax
  401110:	c3                   	retq   
  401111:	66 66 2e 0f 1f 84 00 	data16 nopw %cs:0x0(%rax,%rax,1)
  401118:	00 00 00 00 
  40111c:	0f 1f 40 00          	nopl   0x0(%rax)

0000000000401120 <__do_global_dtors_aux>:
  401120:	f3 0f 1e fa          	endbr64 
  401124:	80 3d 0d 2f 00 00 00 	cmpb   $0x0,0x2f0d(%rip)        # 404038 <__TMC_END__>
  40112b:	75 13                	jne    401140 <__do_global_dtors_aux+0x20>
  40112d:	55                   	push   %rbp
  40112e:	48 89 e5             	mov    %rsp,%rbp
  401131:	e8 7a ff ff ff       	callq  4010b0 <deregister_tm_clones>
  401136:	c6 05 fb 2e 00 00 01 	movb   $0x1,0x2efb(%rip)        # 404038 <__TMC_END__>
  40113d:	5d                   	pop    %rbp
  40113e:	c3                   	retq   
  40113f:	90                   	nop
  401140:	c3                   	retq   
  401141:	66 66 2e 0f 1f 84 00 	data16 nopw %cs:0x0(%rax,%rax,1)
  401148:	00 00 00 00 
  40114c:	0f 1f 40 00          	nopl   0x0(%rax)

0000000000401150 <frame_dummy>:
  401150:	f3 0f 1e fa          	endbr64 
  401154:	eb 8a                	jmp    4010e0 <register_tm_clones>

0000000000401156 <call_me>:
  401156:	f3 0f 1e fa          	endbr64 
  40115a:	55                   	push   %rbp
  40115b:	48 89 e5             	mov    %rsp,%rbp
  40115e:	48 8d 3d 9f 0e 00 00 	lea    0xe9f(%rip),%rdi        # 402004 <_IO_stdin_used+0x4>
  401165:	e8 e6 fe ff ff       	callq  401050 <puts@plt>
  40116a:	90                   	nop
  40116b:	5d                   	pop    %rbp
  40116c:	c3                   	retq   

000000000040116d <main>:
  40116d:	f3 0f 1e fa          	endbr64 
  401171:	55                   	push   %rbp
  401172:	48 89 e5             	mov    %rsp,%rbp
  401175:	48 83 ec 10          	sub    $0x10,%rsp
  401179:	48 8d 45 f0          	lea    -0x10(%rbp),%rax
  40117d:	48 89 c6             	mov    %rax,%rsi
  401180:	48 8d 3d 8e 0e 00 00 	lea    0xe8e(%rip),%rdi        # 402015 <_IO_stdin_used+0x15>
  401187:	b8 00 00 00 00       	mov    $0x0,%eax
  40118c:	e8 cf fe ff ff       	callq  401060 <__isoc99_scanf@plt>
  401191:	b8 00 00 00 00       	mov    $0x0,%eax
  401196:	c9                   	leaveq 
  401197:	c3                   	retq   
  401198:	0f 1f 84 00 00 00 00 	nopl   0x0(%rax,%rax,1)
  40119f:	00 

00000000004011a0 <__libc_csu_init>:
  4011a0:	f3 0f 1e fa          	endbr64 
  4011a4:	41 57                	push   %r15
  4011a6:	4c 8d 3d 63 2c 00 00 	lea    0x2c63(%rip),%r15        # 403e10 <__frame_dummy_init_array_entry>
  4011ad:	41 56                	push   %r14
  4011af:	49 89 d6             	mov    %rdx,%r14
  4011b2:	41 55                	push   %r13
  4011b4:	49 89 f5             	mov    %rsi,%r13
  4011b7:	41 54                	push   %r12
  4011b9:	41 89 fc             	mov    %edi,%r12d
  4011bc:	55                   	push   %rbp
  4011bd:	48 8d 2d 54 2c 00 00 	lea    0x2c54(%rip),%rbp        # 403e18 <__do_global_dtors_aux_fini_array_entry>
  4011c4:	53                   	push   %rbx
  4011c5:	4c 29 fd             	sub    %r15,%rbp
  4011c8:	48 83 ec 08          	sub    $0x8,%rsp
  4011cc:	e8 2f fe ff ff       	callq  401000 <_init>
  4011d1:	48 c1 fd 03          	sar    $0x3,%rbp
  4011d5:	74 1f                	je     4011f6 <__libc_csu_init+0x56>
  4011d7:	31 db                	xor    %ebx,%ebx
  4011d9:	0f 1f 80 00 00 00 00 	nopl   0x0(%rax)
  4011e0:	4c 89 f2             	mov    %r14,%rdx
  4011e3:	4c 89 ee             	mov    %r13,%rsi
  4011e6:	44 89 e7             	mov    %r12d,%edi
  4011e9:	41 ff 14 df          	callq  *(%r15,%rbx,8)
  4011ed:	48 83 c3 01          	add    $0x1,%rbx
  4011f1:	48 39 dd             	cmp    %rbx,%rbp
  4011f4:	75 ea                	jne    4011e0 <__libc_csu_init+0x40>
  4011f6:	48 83 c4 08          	add    $0x8,%rsp
  4011fa:	5b                   	pop    %rbx
  4011fb:	5d                   	pop    %rbp
  4011fc:	41 5c                	pop    %r12
  4011fe:	41 5d                	pop    %r13
  401200:	41 5e                	pop    %r14
  401202:	41 5f                	pop    %r15
  401204:	c3                   	retq   
  401205:	66 66 2e 0f 1f 84 00 	data16 nopw %cs:0x0(%rax,%rax,1)
  40120c:	00 00 00 00 

0000000000401210 <__libc_csu_fini>:
  401210:	f3 0f 1e fa          	endbr64 
  401214:	c3                   	retq   

Disassembly of section .fini:

0000000000401218 <_fini>:
  401218:	f3 0f 1e fa          	endbr64 
  40121c:	48 83 ec 08          	sub    $0x8,%rsp
  401220:	48 83 c4 08          	add    $0x8,%rsp
  401224:	c3                   	retq   
